; Function Attrs: mustprogress uwtable
define dso_local noundef nonnull align 8 dereferenceable(32) ptr @_ZN4Json5ValueaSERKS0_(ptr noundef nonnull returned align 8 dereferenceable(32) %0, ptr nocapture noundef nonnull readonly align 8 dereferenceable(32) %1) local_unnamed_addr #2 align 2 personality ptr @__gxx_personality_v0 {
  %3 = alloca %"class.Json::Value", align 8
  call void @_ZN4Json5ValueC2ERKS0_(ptr noundef nonnull align 8 dereferenceable(32) %3, ptr noundef nonnull align 8 dereferenceable(32) %1)
  %4 = getelementptr inbounds i8, ptr %0, i64 8
  %5 = load i16, ptr %4, align 8
  %6 = getelementptr inbounds i8, ptr %3, i64 8
  %7 = load i16, ptr %6, align 8
  %8 = and i16 %5, -512
  %9 = and i16 %7, -512
  %.sroa.0.0.copyload.i.i.i = load i64, ptr %0, align 8
  %10 = load i64, ptr %3, align 8
  store i64 %10, ptr %0, align 8
  store i64 %.sroa.0.0.copyload.i.i.i, ptr %3, align 8
  %11 = and i16 %7, 511
  %12 = or disjoint i16 %11, %8
  store i16 %12, ptr %4, align 8
  %13 = and i16 %5, 511
  %14 = or disjoint i16 %9, %13
  store i16 %14, ptr %6, align 8
  %15 = getelementptr inbounds i8, ptr %0, i64 16
  %16 = getelementptr inbounds i8, ptr %3, i64 16
  %17 = load ptr, ptr %15, align 8
  %18 = load ptr, ptr %16, align 8
  store ptr %18, ptr %15, align 8
  store ptr %17, ptr %16, align 8
  call void @_ZN4Json5ValueD2Ev(ptr noundef nonnull align 8 dereferenceable(32) %3) #39
  ret ptr %0
}